target datalayout = "e-m:e-p270:32:32-p271:32:32-p272:64:64-i64:64-i128:128-f80:128-n8:16:32:64-S128"
target triple = "x86_64-pc-linux-gnu"

%struct.prolog_state = type { ptr, i32, i32 }
%struct.encoding = type { [3 x ptr], [2 x ptr], ptr, ptr, ptr, ptr, ptr, ptr, ptr, ptr, ptr, ptr, i32, i8, i8 }

@KW_SYSTEM = internal constant [7 x i8] c"SYSTEM\00", align 1
@KW_PUBLIC = internal constant [7 x i8] c"PUBLIC\00", align 1

; Function Attrs: nounwind uwtable
define internal i32 @common(ptr noundef %0, i32 noundef %1) #0 {
  %3 = alloca ptr, align 8
  %4 = alloca i32, align 4
  store ptr %0, ptr %3, align 8, !tbaa !4
  store i32 %1, ptr %4, align 4, !tbaa !12
  %5 = load ptr, ptr %3, align 8, !tbaa !4
  %6 = getelementptr inbounds nuw %struct.prolog_state, ptr %5, i32 0, i32 0
  store ptr @error, ptr %6, align 8, !tbaa !9
  ret i32 -1
}

; Function Attrs: nounwind uwtable
define internal i32 @doctype1(ptr noundef %0, i32 noundef %1, ptr noundef %2, ptr noundef %3, ptr noundef %4) #0 {
  %6 = alloca i32, align 4
  %7 = alloca ptr, align 8
  %8 = alloca i32, align 4
  %9 = alloca ptr, align 8
  %10 = alloca ptr, align 8
  %11 = alloca ptr, align 8
  store ptr %0, ptr %7, align 8, !tbaa !4
  store i32 %1, ptr %8, align 4, !tbaa !12
  store ptr %2, ptr %9, align 8, !tbaa !13
  store ptr %3, ptr %10, align 8, !tbaa !13
  store ptr %4, ptr %11, align 8, !tbaa !15
  %12 = load i32, ptr %8, align 4, !tbaa !12
  switch i32 %12, label %45 [
    i32 15, label %13
    i32 25, label %14
    i32 17, label %17
    i32 18, label %20
  ]

13:                                               ; preds = %5
  store i32 3, ptr %6, align 4
  br label %49

14:                                               ; preds = %5
  %15 = load ptr, ptr %7, align 8, !tbaa !4
  %16 = getelementptr inbounds nuw %struct.prolog_state, ptr %15, i32 0, i32 0
  store ptr @internalSubset, ptr %16, align 8, !tbaa !9
  store i32 7, ptr %6, align 4
  br label %49

17:                                               ; preds = %5
  %18 = load ptr, ptr %7, align 8, !tbaa !4
  %19 = getelementptr inbounds nuw %struct.prolog_state, ptr %18, i32 0, i32 0
  store ptr @prolog2, ptr %19, align 8, !tbaa !9
  store i32 8, ptr %6, align 4
  br label %49

20:                                               ; preds = %5
  %21 = load ptr, ptr %11, align 8, !tbaa !15
  %22 = getelementptr inbounds nuw %struct.encoding, ptr %21, i32 0, i32 2
  %23 = load ptr, ptr %22, align 8, !tbaa !17
  %24 = load ptr, ptr %11, align 8, !tbaa !15
  %25 = load ptr, ptr %9, align 8, !tbaa !13
  %26 = load ptr, ptr %10, align 8, !tbaa !13
  %27 = call i32 %23(ptr noundef %24, ptr noundef %25, ptr noundef %26, ptr noundef @KW_SYSTEM)
  %28 = icmp ne i32 %27, 0
  br i1 %28, label %29, label %32

29:                                               ; preds = %20
  %30 = load ptr, ptr %7, align 8, !tbaa !4
  %31 = getelementptr inbounds nuw %struct.prolog_state, ptr %30, i32 0, i32 0
  store ptr @doctype3, ptr %31, align 8, !tbaa !9
  store i32 3, ptr %6, align 4
  br label %49

32:                                               ; preds = %20
  %33 = load ptr, ptr %11, align 8, !tbaa !15
  %34 = getelementptr inbounds nuw %struct.encoding, ptr %33, i32 0, i32 2
  %35 = load ptr, ptr %34, align 8, !tbaa !17
  %36 = load ptr, ptr %11, align 8, !tbaa !15
  %37 = load ptr, ptr %9, align 8, !tbaa !13
  %38 = load ptr, ptr %10, align 8, !tbaa !13
  %39 = call i32 %35(ptr noundef %36, ptr noundef %37, ptr noundef %38, ptr noundef @KW_PUBLIC)
  %40 = icmp ne i32 %39, 0
  br i1 %40, label %41, label %44

41:                                               ; preds = %32
  %42 = load ptr, ptr %7, align 8, !tbaa !4
  %43 = getelementptr inbounds nuw %struct.prolog_state, ptr %42, i32 0, i32 0
  store ptr @doctype2, ptr %43, align 8, !tbaa !9
  store i32 3, ptr %6, align 4
  br label %49

44:                                               ; preds = %32
  br label %45

45:                                               ; preds = %5, %44
  %46 = load ptr, ptr %7, align 8, !tbaa !4
  %47 = load i32, ptr %8, align 4, !tbaa !12
  %48 = call i32 @common(ptr noundef %46, i32 noundef %47)
  store i32 %48, ptr %6, align 4
  br label %49

49:                                               ; preds = %45, %41, %29, %17, %14, %13
  %50 = load i32, ptr %6, align 4
  ret i32 %50
}