; Function Attrs: nounwind uwtable
define internal range(i32 -1, 9) i32 @doctype1(ptr noundef writeonly captures(none) %0, i32 noundef %1, ptr noundef %2, ptr noundef %3, ptr noundef %4) #1 {
  switch i32 %1, label %14 [
    i32 15, label %15
    i32 25, label %.sink.split
    i32 17, label %6
    i32 18, label %7
  ]

6:                                                ; preds = %5
  br label %.sink.split

7:                                                ; preds = %5
  %8 = getelementptr inbounds nuw i8, ptr %4, i64 40
  %9 = load ptr, ptr %8, align 8, !tbaa !10
  %10 = tail call i32 %9(ptr noundef %4, ptr noundef %2, ptr noundef %3, ptr noundef nonnull @KW_SYSTEM) #5
  %.not = icmp eq i32 %10, 0
  br i1 %.not, label %11, label %.sink.split

11:                                               ; preds = %7
  %12 = load ptr, ptr %8, align 8, !tbaa !10
  %13 = tail call i32 %12(ptr noundef nonnull %4, ptr noundef %2, ptr noundef %3, ptr noundef nonnull @KW_PUBLIC) #5
  %.not15 = icmp eq i32 %13, 0
  br i1 %.not15, label %14, label %.sink.split

14:                                               ; preds = %11, %5
  br label %.sink.split

.sink.split:                                      ; preds = %11, %7, %5, %6, %14
  %error.sink = phi ptr [ @error, %14 ], [ @prolog2, %6 ], [ @internalSubset, %5 ], [ @doctype3, %7 ], [ @doctype2, %11 ]
  %.0.ph = phi i32 [ -1, %14 ], [ 8, %6 ], [ 7, %5 ], [ 3, %7 ], [ 3, %11 ]
  store ptr %error.sink, ptr %0, align 8, !tbaa !4
  br label %15

15:                                               ; preds = %.sink.split, %5
  %.0 = phi i32 [ 3, %5 ], [ %.0.ph, %.sink.split ]
  ret i32 %.0
}